(dp0
S'linearN'
p1
(lp2
F0.62365
aF0.67372
aF0.69342
aF0.73332
aF0.81087
aF0.83954
aF0.87182
aF0.89257
aF0.89314
aF0.89231
aF0.89189
aF0.89239
aF0.89316
aF0.89237
aF0.8915
aF0.89139
aF0.89213
aF0.89158
aF0.89246
aF0.89278
aF0.89166
asS'rbfA'
p3
(lp4
F0.62365
aF0.67433
aF0.731
aF0.75987
aF0.76534
aF0.77258
aF0.78422
aF0.79112
aF0.79774
aF0.80034
aF0.80157
aF0.80172
aF0.80266
aF0.80076
aF0.8039
aF0.80083
aF0.80366
aF0.80362
aF0.80135
aF0.80297
aF0.80222
asS'rbfN'
p5
(lp6
F0.62365
aF0.67433
aF0.69921
aF0.70508
aF0.77323
aF0.78227
aF0.77966
aF0.78331
aF0.77931
aF0.77754
aF0.77972
aF0.77977
aF0.78408
aF0.78181
aF0.78202
aF0.78219
aF0.78065
aF0.78032
aF0.78106
aF0.77958
aF0.78008
asS'GA'
p7
(lp8
F0.62365
aF0.64448
aF0.65431
aF0.67691
aF0.68833
aF0.69167
aF0.68949
aF0.71636
aF0.74722
aF0.74819
aF0.75099
aF0.76435
aF0.76982
aF0.79284
aF0.80323
aF0.80777
aF0.81041
aF0.82087
aF0.82659
aF0.82601
aF0.82653
asS'linearA'
p9
(lp10
F0.62365
aF0.67372
aF0.6891
aF0.71671
aF0.79719
aF0.81102
aF0.81151
aF0.82029
aF0.81973
aF0.82941
aF0.82878
aF0.82865
aF0.8312
aF0.82833
aF0.82968
aF0.82924
aF0.83076
aF0.82645
aF0.82942
aF0.82968
aF0.82894
as.