(dp0
S'linearN'
p1
(lp2
F0.8149
aF0.94439
aF0.97933
aF0.99353
aF0.99529
aF0.99569
aF0.99623
aF0.99613
aF0.99591
aF0.99604
aF0.99598
aF0.99606
aF0.99624
aF0.99605
aF0.99615
aF0.99597
aF0.99608
aF0.99619
aF0.99645
aF0.99614
aF0.99615
asS'rbfA'
p3
(lp4
F0.8149
aF0.94354
aF0.9821
aF0.9929
aF0.99497
aF0.9959
aF0.99574
aF0.99599
aF0.99611
aF0.99629
aF0.99592
aF0.996
aF0.99619
aF0.99616
aF0.99591
aF0.99606
aF0.99617
aF0.99584
aF0.99603
aF0.99603
aF0.99607
asS'rbfN'
p5
(lp6
F0.8149
aF0.94354
aF0.98506
aF0.99519
aF0.99567
aF0.99631
aF0.9962
aF0.99611
aF0.99599
aF0.99606
aF0.99635
aF0.99562
aF0.99639
aF0.99583
aF0.9965
aF0.99589
aF0.99629
aF0.99633
aF0.99621
aF0.99588
aF0.99602
asS'GA'
p7
(lp8
F0.8149
aF0.90029
aF0.92812
aF0.96804
aF0.98785
aF0.98924
aF0.9949
aF0.99595
aF0.99623
aF0.99692
aF0.9973
aF0.99765
aF0.99769
aF0.99778
aF0.9978
aF0.99769
aF0.99802
aF0.99779
aF0.99772
aF0.99787
aF0.99788
asS'linearA'
p9
(lp10
F0.8149
aF0.94439
aF0.9659
aF0.99044
aF0.99322
aF0.99494
aF0.99677
aF0.99651
aF0.99649
aF0.99683
aF0.99675
aF0.9966
aF0.99676
aF0.9965
aF0.99654
aF0.99657
aF0.99669
aF0.99657
aF0.9962
aF0.9967
aF0.99656
as.