(dp0
S'DTLZ7'
p1
(dp2
S'linearN'
p3
(lp4
F0.71128
aF0.75672
aF0.80271
aF0.81717
aF0.82959
aF0.83618
aF0.83557
aF0.83462
aF0.83673
aF0.8347
aF0.83633
aF0.8394
aF0.84379
aF0.85253
aF0.85793
aF0.85476
aF0.85504
aF0.85594
aF0.85744
aF0.8563
aF0.85851
asS'rbfA'
p5
(lp6
F0.71128
aF0.75672
aF0.76036
aF0.76392
aF0.78064
aF0.81036
aF0.81274
aF0.813
aF0.8159
aF0.81236
aF0.81379
aF0.81634
aF0.8124
aF0.81536
aF0.82394
aF0.82396
aF0.82267
aF0.82207
aF0.81989
aF0.82134
aF0.82147
asS'rbfN'
p7
(lp8
F0.71128
aF0.75672
aF0.76036
aF0.76392
aF0.78064
aF0.81036
aF0.81991
aF0.81834
aF0.82364
aF0.82397
aF0.82388
aF0.82446
aF0.82118
aF0.82433
aF0.82426
aF0.82345
aF0.82437
aF0.82424
aF0.82417
aF0.82555
aF0.82238
asS'GA'
p9
(lp10
F0.71128
aF0.72277
aF0.72544
aF0.75256
aF0.77477
aF0.78389
aF0.78359
aF0.82681
aF0.82744
aF0.82832
aF0.82952
aF0.8309
aF0.8305
aF0.83146
aF0.83194
aF0.83252
aF0.82888
aF0.83117
aF0.83161
aF0.82953
aF0.83111
asS'linearA'
p11
(lp12
F0.71128
aF0.75672
aF0.80271
aF0.80929
aF0.81018
aF0.82209
aF0.8225
aF0.8232
aF0.82601
aF0.82605
aF0.82658
aF0.8261
aF0.82235
aF0.8257
aF0.82579
aF0.82501
aF0.8266
aF0.82436
aF0.824
aF0.82602
aF0.8267
assS'DTLZ5'
p13
(dp14
g3
(lp15
F0.475
aF0.4752
aF0.478
aF0.48276
aF0.48211
aF0.52374
aF0.54005
aF0.55649
aF0.55708
aF0.56
aF0.5635
aF0.5646
aF0.56908
aF0.57276
aF0.59237
aF0.5984
aF0.59646
aF0.59571
aF0.59615
aF0.59719
aF0.5979
asg5
(lp16
F0.475
aF0.48576
aF0.49327
aF0.492
aF0.4933
aF0.50057
aF0.5006
aF0.50115
aF0.50067
aF0.50017
aF0.51888
aF0.52056
aF0.52597
aF0.52407
aF0.52355
aF0.52422
aF0.52539
aF0.52559
aF0.52419
aF0.52433
aF0.52481
asg7
(lp17
F0.475
aF0.48576
aF0.48809
aF0.49605
aF0.49336
aF0.50623
aF0.5066
aF0.55207
aF0.55503
aF0.56442
aF0.56852
aF0.56892
aF0.56796
aF0.57
aF0.57073
aF0.56855
aF0.56989
aF0.56937
aF0.56858
aF0.56663
aF0.56719
asg9
(lp18
F0.475
aF0.48161
aF0.50185
aF0.5065
aF0.52053
aF0.52734
aF0.52809
aF0.53106
aF0.53831
aF0.53445
aF0.53592
aF0.54115
aF0.53727
aF0.54194
aF0.54367
aF0.54298
aF0.54154
aF0.55184
aF0.55136
aF0.55011
aF0.55245
asg11
(lp19
F0.475
aF0.4752
aF0.47476
aF0.48734
aF0.48751
aF0.49304
aF0.49031
aF0.49282
aF0.49283
aF0.49766
aF0.50197
aF0.49985
aF0.50265
aF0.50034
aF0.50198
aF0.50034
aF0.5033
aF0.5028
aF0.50763
aF0.50593
aF0.51213
assS'DTLZ3'
p20
(dp21
g3
(lp22
F0.95199
aF0.97371
aF0.97391
aF0.97795
aF0.97952
aF0.98006
aF0.98018
aF0.98147
aF0.9821
aF0.98147
aF0.98165
aF0.98444
aF0.98423
aF0.9859
aF0.98581
aF0.98601
aF0.98745
aF0.98793
aF0.98756
aF0.98798
aF0.98778
asg5
(lp23
F0.95199
aF0.97348
aF0.97792
aF0.97826
aF0.97873
aF0.97922
aF0.97805
aF0.97856
aF0.9788
aF0.97837
aF0.97957
aF0.97969
aF0.97797
aF0.97871
aF0.97892
aF0.97835
aF0.97859
aF0.9787
aF0.97908
aF0.9789
aF0.97914
asg7
(lp24
F0.95199
aF0.97348
aF0.97469
aF0.97843
aF0.97922
aF0.99012
aF0.99014
aF0.99064
aF0.99049
aF0.9908
aF0.99193
aF0.99128
aF0.99089
aF0.9914
aF0.99096
aF0.9922
aF0.99243
aF0.99263
aF0.99198
aF0.99201
aF0.9925
asg9
(lp25
F0.95199
aF0.95535
aF0.95847
aF0.96882
aF0.97573
aF0.98983
aF0.98945
aF0.98931
aF0.99003
aF0.98979
aF0.99077
aF0.98993
aF0.992
aF0.992
aF0.99295
aF0.99266
aF0.99275
aF0.99443
aF0.99445
aF0.99402
aF0.99412
asg11
(lp26
F0.95199
aF0.97371
aF0.97391
aF0.98402
aF0.98537
aF0.98775
aF0.98742
aF0.99048
aF0.99066
aF0.99047
aF0.99072
aF0.99043
aF0.99025
aF0.99086
aF0.99053
aF0.99058
aF0.99059
aF0.99039
aF0.98989
aF0.9902
aF0.99103
assS'DTLZ1'
p27
(dp28
g3
(lp29
F0.94653
aF0.94903
aF0.94833
aF0.94893
aF0.96521
aF0.97041
aF0.97214
aF0.97287
aF0.97602
aF0.97984
aF0.98549
aF0.99056
aF0.99014
aF0.99067
aF0.99056
aF0.99047
aF0.99074
aF0.99076
aF0.99019
aF0.99061
aF0.99096
asg5
(lp30
F0.94653
aF0.9494
aF0.96481
aF0.97085
aF0.97075
aF0.97061
aF0.9755
aF0.97617
aF0.9769
aF0.97679
aF0.97788
aF0.97872
aF0.97767
aF0.97846
aF0.97996
aF0.97939
aF0.97988
aF0.98553
aF0.9855
aF0.98462
aF0.9853
asg7
(lp31
F0.94653
aF0.9494
aF0.94879
aF0.95478
aF0.95774
aF0.95779
aF0.95721
aF0.95813
aF0.96353
aF0.96374
aF0.96472
aF0.96433
aF0.96403
aF0.96481
aF0.96369
aF0.96516
aF0.96491
aF0.96526
aF0.96365
aF0.96437
aF0.96531
asg9
(lp32
F0.94653
aF0.95673
aF0.96524
aF0.97374
aF0.9869
aF0.98747
aF0.98678
aF0.98701
aF0.98771
aF0.9869
aF0.98783
aF0.98776
aF0.98779
aF0.98809
aF0.98855
aF0.9884
aF0.98794
aF0.98872
aF0.98878
aF0.98857
aF0.98841
asg11
(lp33
F0.94653
aF0.94903
aF0.95463
aF0.96426
aF0.9717
aF0.97123
aF0.9713
aF0.97197
aF0.97192
aF0.97138
aF0.97299
aF0.97106
aF0.97142
aF0.97152
aF0.97125
aF0.97148
aF0.98756
aF0.98777
aF0.98707
aF0.98721
aF0.98733
ass.