(dp0
S'DTLZ7'
p1
(dp2
S'linearN'
p3
(lp4
F0.66266
aF0.81088
aF0.91488
aF0.92647
aF0.92812
aF0.93662
aF0.93978
aF0.96867
aF0.98027
aF0.98061
aF0.9796
aF0.98113
aF0.98028
aF0.98116
aF0.9805
aF0.98061
aF0.98047
aF0.98008
aF0.98003
aF0.97974
aF0.98089
asS'rbfA'
p5
(lp6
F0.66266
aF0.81088
aF0.90938
aF0.91158
aF0.92642
aF0.96731
aF0.98712
aF0.99027
aF0.9935
aF0.99296
aF0.99303
aF0.99292
aF0.99283
aF0.99253
aF0.99251
aF0.99298
aF0.99273
aF0.99286
aF0.99268
aF0.99307
aF0.9931
asS'rbfN'
p7
(lp8
F0.66266
aF0.81088
aF0.91219
aF0.94194
aF0.95106
aF0.95659
aF0.95662
aF0.95993
aF0.96073
aF0.96016
aF0.95904
aF0.95989
aF0.96013
aF0.96036
aF0.95993
aF0.95986
aF0.96008
aF0.96043
aF0.96016
aF0.96005
aF0.96105
asS'GA'
p9
(lp10
F0.66266
aF0.6865
aF0.70462
aF0.76365
aF0.82939
aF0.86675
aF0.93174
aF0.94034
aF0.95655
aF0.96819
aF0.97652
aF0.97889
aF0.97848
aF0.98158
aF0.98569
aF0.98593
aF0.98588
aF0.98644
aF0.98574
aF0.98557
aF0.98558
asS'linearA'
p11
(lp12
F0.66266
aF0.81088
aF0.90865
aF0.92402
aF0.93977
aF0.95048
aF0.95001
aF0.9716
aF0.97116
aF0.97258
aF0.97218
aF0.97235
aF0.97241
aF0.97205
aF0.97179
aF0.97256
aF0.97141
aF0.97144
aF0.97178
aF0.97247
aF0.97269
assS'DTLZ5'
p13
(dp14
g3
(lp15
F0.47739
aF0.49961
aF0.51232
aF0.51533
aF0.52566
aF0.52351
aF0.52348
aF0.53979
aF0.54233
aF0.57208
aF0.57222
aF0.57323
aF0.57503
aF0.5724
aF0.57486
aF0.57287
aF0.57734
aF0.57864
aF0.57771
aF0.5801
aF0.58332
asg5
(lp16
F0.47739
aF0.52449
aF0.52381
aF0.53169
aF0.53149
aF0.53052
aF0.53274
aF0.5282
aF0.53113
aF0.52887
aF0.53189
aF0.53149
aF0.53138
aF0.53052
aF0.53252
aF0.52947
aF0.5292
aF0.52997
aF0.52956
aF0.53102
aF0.53176
asg7
(lp17
F0.47739
aF0.52449
aF0.52482
aF0.52378
aF0.52609
aF0.52491
aF0.52743
aF0.52511
aF0.52487
aF0.52334
aF0.5251
aF0.52738
aF0.52237
aF0.52514
aF0.52621
aF0.52349
aF0.52363
aF0.52623
aF0.52675
aF0.52765
aF0.52497
asg9
(lp18
F0.47739
aF0.48938
aF0.48904
aF0.49088
aF0.49582
aF0.49744
aF0.50306
aF0.50411
aF0.50974
aF0.50726
aF0.51088
aF0.5204
aF0.54083
aF0.5464
aF0.54282
aF0.55546
aF0.55684
aF0.55727
aF0.55919
aF0.55863
aF0.5595
asg11
(lp19
F0.47739
aF0.49961
aF0.50355
aF0.50812
aF0.5105
aF0.50912
aF0.51187
aF0.50682
aF0.5094
aF0.50981
aF0.51049
aF0.51203
aF0.50991
aF0.5089
aF0.50795
aF0.50772
aF0.50809
aF0.50949
aF0.50553
aF0.51134
aF0.50902
assS'DTLZ3'
p20
(dp21
g3
(lp22
F0.96965
aF0.97136
aF0.97986
aF0.99436
aF0.99419
aF0.99591
aF0.99589
aF0.9965
aF0.99701
aF0.9967
aF0.99691
aF0.99785
aF0.99798
aF0.99799
aF0.99838
aF0.9986
aF0.99834
aF0.99865
aF0.99848
aF0.99862
aF0.99857
asg5
(lp23
F0.96965
aF0.97008
aF0.9736
aF0.97378
aF0.97948
aF0.9794
aF0.97858
aF0.97927
aF0.9934
aF0.99435
aF0.99398
aF0.99418
aF0.99395
aF0.99395
aF0.99386
aF0.99422
aF0.99364
aF0.99424
aF0.99366
aF0.99378
aF0.99402
asg7
(lp24
F0.96965
aF0.97323
aF0.97465
aF0.97397
aF0.97551
aF0.97623
aF0.98938
aF0.99135
aF0.99214
aF0.99254
aF0.99232
aF0.99279
aF0.99567
aF0.9956
aF0.99586
aF0.99638
aF0.99809
aF0.998
aF0.99799
aF0.99791
aF0.99784
asg9
(lp25
F0.96965
aF0.97679
aF0.98265
aF0.98268
aF0.98325
aF0.99033
aF0.99175
aF0.9921
aF0.99392
aF0.99441
aF0.9952
aF0.99614
aF0.99572
aF0.99606
aF0.99627
aF0.99659
aF0.99617
aF0.99605
aF0.99647
aF0.99646
aF0.99624
asg11
(lp26
F0.96965
aF0.97136
aF0.97977
aF0.98828
aF0.99454
aF0.99471
aF0.99512
aF0.99637
aF0.99627
aF0.9965
aF0.99677
aF0.99681
aF0.99653
aF0.99726
aF0.99745
aF0.99813
aF0.9982
aF0.9984
aF0.99862
aF0.99862
aF0.99851
assS'DTLZ1'
p27
(dp28
g3
(lp29
F0.99217
aF0.993
aF0.99409
aF0.99433
aF0.99482
aF0.99581
aF0.99594
aF0.99681
aF0.99733
aF0.99697
aF0.99861
aF0.99923
aF0.99898
aF0.99905
aF0.99972
aF0.99972
aF0.99985
aF0.99973
aF0.9998
aF0.99982
aF0.99971
asg5
(lp30
F0.99217
aF0.99558
aF0.99744
aF0.99725
aF0.99918
aF0.99931
aF0.99924
aF0.99938
aF0.99945
aF0.99935
aF0.99929
aF0.99939
aF0.99945
aF0.99934
aF0.9993
aF0.99949
aF0.99953
aF0.99945
aF0.9995
aF0.99928
aF0.99931
asg7
(lp31
F0.99217
aF0.99558
aF0.99629
aF0.9963
aF0.99822
aF0.99851
aF0.99909
aF0.9991
aF0.9992
aF0.9992
aF0.9991
aF0.99916
aF0.99909
aF0.99901
aF0.99902
aF0.99883
aF0.99913
aF0.99909
aF0.99909
aF0.99902
aF0.99886
asg9
(lp32
F0.99217
aF0.99502
aF0.99585
aF0.99628
aF0.99839
aF0.9986
aF0.99896
aF0.999
aF0.99914
aF0.99922
aF0.99895
aF0.99904
aF0.99921
aF0.99919
aF0.99912
aF0.99943
aF0.99956
aF0.9995
aF0.99954
aF0.99947
aF0.99952
asg11
(lp33
F0.99217
aF0.993
aF0.99448
aF0.99655
aF0.99715
aF0.99712
aF0.99711
aF0.99785
aF0.99812
aF0.99835
aF0.99928
aF0.99929
aF0.99932
aF0.99955
aF0.99986
aF0.99988
aF0.99993
aF0.99984
aF0.99984
aF0.99988
aF0.99983
ass.