(lp0
F0.77474
aF0.8089
aF0.881
aF0.92535
aF0.92385
aF0.92523
aF0.92621
aF0.94484
aF0.94456
aF0.94495
aF0.94565
aF0.94442
aF0.94565
aF0.9458
aF0.9462
aF0.94552
aF0.94507
aF0.94507
aF0.94478
aF0.95352
aF0.95208
aF0.95267
aF0.95594
aF0.95688
aF0.95616
aF0.95452
aF0.95713
aF0.95514
aF0.95807
aF0.95844
aF0.95774
aF0.95814
aF0.95736
aF0.95727
aF0.95725
aF0.95812
aF0.95951
aF0.95763
aF0.9632
aF0.96349
aF0.96321
aF0.96335
aF0.96285
aF0.96705
aF0.96713
aF0.96633
aF0.96667
aF0.96802
aF0.96732
aF0.96758
aF0.96712
aF0.96787
aF0.96736
aF0.96819
aF0.9679
aF0.9687
aF0.96956
aF0.96878
aF0.96899
aF0.9695
aF0.96778
aF0.96786
aF0.96881
aF0.96868
aF0.99594
aF0.99572
aF0.99612
aF0.99593
aF0.9962
aF0.99638
aF0.9965
aF0.99619
aF0.99646
aF0.99616
a.(lp0
F0.77566
aF0.77848
aF0.80381
aF0.81538
aF0.81613
aF0.81786
aF0.85313
aF0.85496
aF0.85322
aF0.85351
aF0.85685
aF0.85933
aF0.86148
aF0.86018
aF0.86592
aF0.86995
aF0.89703
aF0.89377
aF0.89557
aF0.89696
aF0.89986
aF0.89783
aF0.89648
aF0.89768
aF0.89884
aF0.89768
aF0.89747
aF0.9007
aF0.899
aF0.9168
aF0.91756
aF0.91613
aF0.92104
aF0.9186
aF0.94996
aF0.9508
aF0.95139
aF0.95029
aF0.95609
aF0.96184
aF0.96189
aF0.96179
aF0.96224
aF0.9612
aF0.96187
aF0.96661
aF0.97638
aF0.97694
aF0.97642
aF0.97781
aF0.97816
aF0.97835
aF0.97883
aF0.97883
aF0.97796
aF0.97864
aF0.97863
aF0.97995
aF0.9782
aF0.97899
aF0.97872
aF0.97858
aF0.9802
aF0.98057
aF0.98
aF0.98015
aF0.98026
aF0.97987
aF0.98066
aF0.97958
aF0.98066
aF0.98042
aF0.98034
aF0.98105
aF0.98123
aF0.98037
aF0.98087
aF0.99005
aF0.99042
aF0.99011
aF0.98969
aF0.99061
aF0.99061
aF0.99022
aF0.99923
aF0.99927
aF0.99925
aF0.99939
aF0.9995
aF0.99939
aF0.9995
aF0.99944
aF0.99944
aF0.99953
aF0.99954
aF0.99945
aF0.9994
aF0.99947
aF0.99958
aF0.9995
aF0.99953
aF0.99936
aF0.99948
aF0.99952
aF0.99946
aF0.99963
aF0.99951
aF0.99961
aF0.9996
aF0.99961
aF0.99961
aF0.99967
aF0.99959
aF0.99965
a.