(dp0
S'linearN'
p1
(lp2
F0.79118
aF0.92649
aF0.94927
aF0.98863
aF0.99497
aF0.99621
aF0.99614
aF0.99611
aF0.99592
aF0.99641
aF0.99651
aF0.99686
aF0.99636
aF0.99646
aF0.99678
aF0.99672
aF0.9965
aF0.99659
aF0.99656
aF0.9965
aF0.99674
asS'rbfA'
p3
(lp4
F0.79118
aF0.92613
aF0.97823
aF0.9919
aF0.99583
aF0.99613
aF0.99655
aF0.99618
aF0.9961
aF0.99627
aF0.99613
aF0.99609
aF0.9963
aF0.99643
aF0.99612
aF0.99621
aF0.99614
aF0.99625
aF0.99634
aF0.99643
aF0.99586
asS'rbfN'
p5
(lp6
F0.79118
aF0.92613
aF0.97922
aF0.98051
aF0.99527
aF0.99549
aF0.99586
aF0.99606
aF0.99632
aF0.996
aF0.99636
aF0.99635
aF0.99591
aF0.99626
aF0.99607
aF0.99585
aF0.99629
aF0.99631
aF0.99564
aF0.99569
aF0.99605
asS'GA'
p7
(lp8
F0.79118
aF0.87029
aF0.89405
aF0.93474
aF0.95478
aF0.98494
aF0.99652
aF0.99644
aF0.99593
aF0.99621
aF0.99592
aF0.99633
aF0.99624
aF0.996
aF0.99613
aF0.99676
aF0.99649
aF0.99655
aF0.9965
aF0.99641
aF0.99673
asS'linearA'
p9
(lp10
F0.79118
aF0.92649
aF0.9497
aF0.97754
aF0.99505
aF0.99512
aF0.99609
aF0.99608
aF0.99594
aF0.99613
aF0.99631
aF0.99601
aF0.99616
aF0.99585
aF0.99612
aF0.99605
aF0.99649
aF0.99672
aF0.9969
aF0.99687
aF0.99663
as.