(dp0
S'linearN'
p1
(lp2
F0.63788
aF0.7308
aF0.77408
aF0.80943
aF0.84305
aF0.87651
aF0.89848
aF0.90102
aF0.89899
aF0.90301
aF0.90101
aF0.90114
aF0.9032
aF0.91633
aF0.91633
aF0.91724
aF0.91664
aF0.91752
aF0.91817
aF0.91591
aF0.91684
asS'rbfA'
p3
(lp4
F0.63788
aF0.74399
aF0.78373
aF0.82531
aF0.85759
aF0.86651
aF0.8798
aF0.87933
aF0.87667
aF0.87959
aF0.88026
aF0.87698
aF0.87917
aF0.87871
aF0.88073
aF0.88727
aF0.88746
aF0.88793
aF0.88933
aF0.89003
aF0.89015
asS'rbfN'
p5
(lp6
F0.63788
aF0.74399
aF0.78375
aF0.81871
aF0.87294
aF0.8823
aF0.89055
aF0.89409
aF0.89655
aF0.89426
aF0.89602
aF0.89643
aF0.89959
aF0.89817
aF0.90043
aF0.89915
aF0.90063
aF0.89959
aF0.89902
aF0.89947
aF0.89935
asS'GA'
p7
(lp8
F0.63788
aF0.71384
aF0.77515
aF0.81199
aF0.89147
aF0.90025
aF0.90719
aF0.9251
aF0.92538
aF0.92999
aF0.92801
aF0.93053
aF0.92954
aF0.92924
aF0.93042
aF0.93081
aF0.9312
aF0.93048
aF0.93244
aF0.93053
aF0.92974
asS'linearA'
p9
(lp10
F0.63788
aF0.7308
aF0.77402
aF0.81162
aF0.82685
aF0.88436
aF0.90198
aF0.9035
aF0.91056
aF0.91869
aF0.91826
aF0.91967
aF0.92171
aF0.92255
aF0.93355
aF0.93328
aF0.93269
aF0.93548
aF0.93413
aF0.93394
aF0.93522
as.