(dp0
S'DTLZ7'
p1
(dp2
S'linearN'
p3
(lp4
F0.67795
aF0.8341
aF0.83878
aF0.91456
aF0.92462
aF0.92548
aF0.92568
aF0.92608
aF0.92704
aF0.92652
aF0.92717
aF0.92506
aF0.92709
aF0.92589
aF0.9265
aF0.92813
aF0.92657
aF0.9265
aF0.9268
aF0.92719
aF0.92778
asS'rbfA'
p5
(lp6
F0.67795
aF0.83727
aF0.8577
aF0.91217
aF0.90981
aF0.9379
aF0.93766
aF0.93846
aF0.93817
aF0.93829
aF0.93776
aF0.93762
aF0.9377
aF0.9369
aF0.93768
aF0.93861
aF0.93747
aF0.93726
aF0.93747
aF0.93725
aF0.93673
asS'rbfN'
p7
(lp8
F0.67795
aF0.83727
aF0.85768
aF0.95499
aF0.95418
aF0.95534
aF0.95681
aF0.96085
aF0.96091
aF0.96081
aF0.9604
aF0.96089
aF0.9612
aF0.96059
aF0.96002
aF0.96124
aF0.96031
aF0.96045
aF0.96028
aF0.96105
aF0.96064
asS'GA'
p9
(lp10
F0.67795
aF0.71698
aF0.75716
aF0.75894
aF0.77879
aF0.78023
aF0.79352
aF0.81228
aF0.82079
aF0.82791
aF0.86518
aF0.87692
aF0.87606
aF0.88975
aF0.89552
aF0.9072
aF0.91636
aF0.91611
aF0.92133
aF0.92201
aF0.92723
asS'linearA'
p11
(lp12
F0.67795
aF0.8341
aF0.84432
aF0.8497
aF0.92556
aF0.92499
aF0.92679
aF0.92543
aF0.92644
aF0.92567
aF0.92639
aF0.92561
aF0.92588
aF0.92626
aF0.92598
aF0.92632
aF0.92578
aF0.93534
aF0.93805
aF0.93777
aF0.93789
assS'DTLZ5'
p13
(dp14
g3
(lp15
F0.51375
aF0.51713
aF0.51617
aF0.51889
aF0.52466
aF0.52705
aF0.52758
aF0.52491
aF0.52432
aF0.52572
aF0.56618
aF0.57204
aF0.57016
aF0.57175
aF0.57225
aF0.57121
aF0.56878
aF0.57066
aF0.57093
aF0.57451
aF0.57311
asg5
(lp16
F0.51375
aF0.51661
aF0.51919
aF0.52119
aF0.52528
aF0.55671
aF0.55856
aF0.55645
aF0.55649
aF0.56082
aF0.55938
aF0.55867
aF0.55899
aF0.56271
aF0.55842
aF0.55759
aF0.56021
aF0.57559
aF0.57759
aF0.57761
aF0.57843
asg7
(lp17
F0.51375
aF0.51661
aF0.51523
aF0.51686
aF0.51871
aF0.52065
aF0.52178
aF0.51773
aF0.51813
aF0.51977
aF0.51818
aF0.52057
aF0.5193
aF0.52309
aF0.52216
aF0.52172
aF0.5167
aF0.52126
aF0.52267
aF0.52225
aF0.52131
asg9
(lp18
F0.51375
aF0.51494
aF0.54134
aF0.55206
aF0.55406
aF0.55562
aF0.5598
aF0.5605
aF0.56025
aF0.55851
aF0.5622
aF0.56055
aF0.5604
aF0.58789
aF0.58833
aF0.58585
aF0.59287
aF0.59809
aF0.60022
aF0.59818
aF0.59907
asg11
(lp19
F0.51375
aF0.51723
aF0.52253
aF0.5184
aF0.52189
aF0.52893
aF0.52947
aF0.53362
aF0.53209
aF0.53255
aF0.55628
aF0.55678
aF0.59554
aF0.59693
aF0.59838
aF0.60309
aF0.59999
aF0.60188
aF0.59961
aF0.6034
aF0.60493
assS'DTLZ3'
p20
(dp21
g3
(lp22
F0.98338
aF0.98761
aF0.98772
aF0.99073
aF0.99379
aF0.99501
aF0.99528
aF0.99579
aF0.99621
aF0.99667
aF0.99729
aF0.99763
aF0.9976
aF0.99755
aF0.99768
aF0.99797
aF0.99757
aF0.99776
aF0.99736
aF0.99737
aF0.99758
asg5
(lp23
F0.98338
aF0.98685
aF0.9904
aF0.99237
aF0.99263
aF0.99312
aF0.99603
aF0.99618
aF0.99652
aF0.99678
aF0.99692
aF0.99679
aF0.99684
aF0.99685
aF0.99658
aF0.99704
aF0.9971
aF0.99665
aF0.99666
aF0.99685
aF0.99717
asg7
(lp24
F0.98338
aF0.98685
aF0.98908
aF0.99072
aF0.99195
aF0.99186
aF0.99281
aF0.99329
aF0.99429
aF0.99408
aF0.99416
aF0.99582
aF0.99598
aF0.99576
aF0.99553
aF0.99584
aF0.99641
aF0.99592
aF0.99623
aF0.99617
aF0.99642
asg9
(lp25
F0.98338
aF0.98491
aF0.98718
aF0.98949
aF0.98901
aF0.99227
aF0.99289
aF0.99303
aF0.994
aF0.99427
aF0.99462
aF0.99628
aF0.99637
aF0.99656
aF0.99609
aF0.99639
aF0.99678
aF0.99657
aF0.99643
aF0.9961
aF0.99661
asg11
(lp26
F0.98338
aF0.98761
aF0.98738
aF0.98855
aF0.99087
aF0.99111
aF0.99335
aF0.99413
aF0.99391
aF0.99414
aF0.99449
aF0.99571
aF0.99553
aF0.99582
aF0.99575
aF0.99569
aF0.99726
aF0.997
aF0.9971
aF0.99714
aF0.99747
assS'DTLZ1'
p27
(dp28
g3
(lp29
F0.98472
aF0.98743
aF0.99084
aF0.99439
aF0.99415
aF0.99516
aF0.99498
aF0.99511
aF0.99555
aF0.99623
aF0.99684
aF0.99625
aF0.99677
aF0.99629
aF0.99667
aF0.99669
aF0.99669
aF0.99613
aF0.99652
aF0.99647
aF0.99669
asg5
(lp30
F0.98472
aF0.98758
aF0.98907
aF0.99501
aF0.99529
aF0.99674
aF0.99648
aF0.99658
aF0.99726
aF0.99697
aF0.99671
aF0.99712
aF0.99684
aF0.99693
aF0.99679
aF0.99668
aF0.99706
aF0.99653
aF0.99655
aF0.99665
aF0.9971
asg7
(lp31
F0.98472
aF0.98537
aF0.98649
aF0.9875
aF0.98922
aF0.98821
aF0.99064
aF0.99048
aF0.99166
aF0.99048
aF0.99409
aF0.99327
aF0.99568
aF0.99568
aF0.99564
aF0.9955
aF0.99593
aF0.99543
aF0.99595
aF0.99599
aF0.99576
asg9
(lp32
F0.98472
aF0.98576
aF0.98849
aF0.99398
aF0.9952
aF0.99554
aF0.99525
aF0.99531
aF0.99522
aF0.99516
aF0.99595
aF0.99591
aF0.99551
aF0.99533
aF0.9953
aF0.9957
aF0.99541
aF0.99531
aF0.99544
aF0.99513
aF0.99577
asg11
(lp33
F0.98472
aF0.98537
aF0.99019
aF0.99073
aF0.99304
aF0.99299
aF0.99299
aF0.99409
aF0.99428
aF0.99447
aF0.99445
aF0.99417
aF0.99448
aF0.99454
aF0.9948
aF0.99453
aF0.99397
aF0.99464
aF0.99406
aF0.99417
aF0.99415
ass.